target datalayout = "e-m:e-p270:32:32-p271:32:32-p272:64:64-i64:64-i128:128-f80:128-n8:16:32:64-S128"
target triple = "x86_64-pc-linux-gnu"

%struct.H5O_loc_t = type { ptr, i64, i8 }

@H5O_init_g = external global i8, align 1
@H5_libterm_g = external global i8, align 1
@.str = private unnamed_addr constant [104 x i8] c"generated/home/dtcxzyw/WorkSpace/Projects/compilers/llvm-opt-benchmark/bench/hdf5/hdf5/src/H5Omessage.c\00", align 1
@H5E_FUNC_g = external global i64, align 8
@H5E_CANTINIT_g = external global i64, align 8
@.str.1 = private unnamed_addr constant [32 x i8] c"interface initialization failed\00", align 1
@H5E_OHDR_g = external global i64, align 8
@H5E_CANTPIN_g = external global i64, align 8
@.str.2 = private unnamed_addr constant [28 x i8] c"unable to pin object header\00", align 1
@H5E_WRITEERROR_g = external global i64, align 8
@H5E_CANTUNPIN_g = external global i64, align 8
@.str.4 = private unnamed_addr constant [30 x i8] c"unable to unpin object header\00", align 1
@H5O_msg_class_g = external constant [26 x ptr], align 16
@__func__.H5O_msg_write = private unnamed_addr constant [14 x i8] c"H5O_msg_write\00", align 1
@.str.8 = private unnamed_addr constant [38 x i8] c"unable to write object header message\00", align 1

; Function Attrs: nounwind uwtable
define i32 @H5O_msg_write(ptr noundef %0, i32 noundef %1, i32 noundef %2, i32 noundef %3, ptr noundef %4) #0 {
  %6 = alloca ptr, align 8
  %7 = alloca i32, align 4
  %8 = alloca i32, align 4
  %9 = alloca i32, align 4
  %10 = alloca ptr, align 8
  %11 = alloca ptr, align 8
  %12 = alloca ptr, align 8
  %13 = alloca i32, align 4
  %14 = alloca i8, align 1
  store ptr %0, ptr %6, align 8, !tbaa !3
  store i32 %1, ptr %7, align 4, !tbaa !8
  store i32 %2, ptr %8, align 4, !tbaa !8
  store i32 %3, ptr %9, align 4, !tbaa !8
  store ptr %4, ptr %10, align 8, !tbaa !10
  call void @llvm.lifetime.start.p0(i64 8, ptr %11) #5
  store ptr null, ptr %11, align 8, !tbaa !11
  call void @llvm.lifetime.start.p0(i64 8, ptr %12) #5
  call void @llvm.lifetime.start.p0(i64 4, ptr %13) #5
  store i32 0, ptr %13, align 4, !tbaa !8
  call void @llvm.lifetime.start.p0(i64 1, ptr %14) #5
  store i8 0, ptr %14, align 1, !tbaa !13
  %15 = load i8, ptr @H5O_init_g, align 1, !tbaa !13, !range !15, !noundef !16
  %16 = trunc i8 %15 to i1
  br i1 %16, label %21, label %17

17:                                               ; preds = %5
  %18 = load i8, ptr @H5_libterm_g, align 1, !tbaa !13, !range !15, !noundef !16
  %19 = trunc i8 %18 to i1
  %20 = xor i1 %19, true
  br label %21

21:                                               ; preds = %17, %5
  %22 = phi i1 [ false, %5 ], [ %20, %17 ]
  %23 = xor i1 %22, true
  %24 = xor i1 %23, true
  %25 = zext i1 %24 to i32
  %26 = sext i32 %25 to i64
  %27 = call i64 @llvm.expect.i64(i64 %26, i64 0)
  %28 = icmp ne i64 %27, 0
  br i1 %28, label %29, label %52

29:                                               ; preds = %21
  store i8 1, ptr @H5O_init_g, align 1, !tbaa !13
  %30 = call i32 @H5O__init_package()
  %31 = icmp slt i32 %30, 0
  br i1 %31, label %32, label %51

32:                                               ; preds = %29
  store i8 0, ptr @H5O_init_g, align 1, !tbaa !13
  br label %33

33:                                               ; preds = %32
  br label %34

34:                                               ; preds = %33
  br label %35

35:                                               ; preds = %34
  %36 = load i64, ptr @H5E_FUNC_g, align 8, !tbaa !17
  %37 = load i64, ptr @H5E_CANTINIT_g, align 8, !tbaa !17
  %38 = call i32 (ptr, ptr, i32, i64, i64, ptr, ...) @H5E_printf_stack(ptr noundef @.str, ptr noundef @__func__.H5O_msg_write, i32 noundef 228, i64 noundef %36, i64 noundef %37, ptr noundef @.str.1)
  br label %39

39:                                               ; preds = %35
  br label %40

40:                                               ; preds = %39
  store i8 1, ptr %14, align 1, !tbaa !13
  %41 = load i8, ptr %14, align 1, !tbaa !13, !range !15, !noundef !16
  %42 = trunc i8 %41 to i1
  %43 = zext i1 %42 to i8
  store i8 %43, ptr %14, align 1, !tbaa !13
  br label %44

44:                                               ; preds = %40
  br label %45

45:                                               ; preds = %44
  br label %46

46:                                               ; preds = %45
  store i32 -1, ptr %13, align 4, !tbaa !8
  br label %125

47:                                               ; No predecessors!
  br label %48

48:                                               ; preds = %47
  br label %49

49:                                               ; preds = %48
  br label %50

50:                                               ; preds = %49
  br label %51

51:                                               ; preds = %50, %29
  br label %52

52:                                               ; preds = %51, %21
  %53 = load i8, ptr @H5O_init_g, align 1, !tbaa !13, !range !15, !noundef !16
  %54 = trunc i8 %53 to i1
  br i1 %54, label %59, label %55

55:                                               ; preds = %52
  %56 = load i8, ptr @H5_libterm_g, align 1, !tbaa !13, !range !15, !noundef !16
  %57 = trunc i8 %56 to i1
  %58 = xor i1 %57, true
  br label %59

59:                                               ; preds = %55, %52
  %60 = phi i1 [ true, %52 ], [ %58, %55 ]
  %61 = xor i1 %60, true
  %62 = xor i1 %61, true
  %63 = zext i1 %62 to i32
  %64 = sext i32 %63 to i64
  %65 = call i64 @llvm.expect.i64(i64 %64, i64 1)
  %66 = icmp ne i64 %65, 0
  br i1 %66, label %67, label %149

67:                                               ; preds = %59
  %68 = load i32, ptr %7, align 4, !tbaa !8
  %69 = zext i32 %68 to i64
  %70 = getelementptr inbounds nuw [26 x ptr], ptr @H5O_msg_class_g, i64 0, i64 %69
  %71 = load ptr, ptr %70, align 8, !tbaa !23
  store ptr %71, ptr %12, align 8, !tbaa !23
  %72 = load ptr, ptr %6, align 8, !tbaa !3
  %73 = call ptr @H5O_pin(ptr noundef %72)
  store ptr %73, ptr %11, align 8, !tbaa !11
  %74 = icmp eq ptr null, %73
  br i1 %74, label %75, label %94

75:                                               ; preds = %67
  br label %76

76:                                               ; preds = %75
  br label %77

77:                                               ; preds = %76
  br label %78

78:                                               ; preds = %77
  %79 = load i64, ptr @H5E_OHDR_g, align 8, !tbaa !17
  %80 = load i64, ptr @H5E_CANTPIN_g, align 8, !tbaa !17
  %81 = call i32 (ptr, ptr, i32, i64, i64, ptr, ...) @H5E_printf_stack(ptr noundef @.str, ptr noundef @__func__.H5O_msg_write, i32 noundef 243, i64 noundef %79, i64 noundef %80, ptr noundef @.str.2)
  br label %82

82:                                               ; preds = %78
  br label %83

83:                                               ; preds = %82
  store i8 1, ptr %14, align 1, !tbaa !13
  %84 = load i8, ptr %14, align 1, !tbaa !13, !range !15, !noundef !16
  %85 = trunc i8 %84 to i1
  %86 = zext i1 %85 to i8
  store i8 %86, ptr %14, align 1, !tbaa !13
  br label %87

87:                                               ; preds = %83
  br label %88

88:                                               ; preds = %87
  br label %89

89:                                               ; preds = %88
  store i32 -1, ptr %13, align 4, !tbaa !8
  br label %125

90:                                               ; No predecessors!
  br label %91

91:                                               ; preds = %90
  br label %92

92:                                               ; preds = %91
  br label %93

93:                                               ; preds = %92
  br label %94

94:                                               ; preds = %93, %67
  %95 = load ptr, ptr %6, align 8, !tbaa !3
  %96 = getelementptr inbounds nuw %struct.H5O_loc_t, ptr %95, i32 0, i32 0
  %97 = load ptr, ptr %96, align 8, !tbaa !19
  %98 = load ptr, ptr %11, align 8, !tbaa !11
  %99 = load ptr, ptr %12, align 8, !tbaa !23
  %100 = load i32, ptr %8, align 4, !tbaa !8
  %101 = load i32, ptr %9, align 4, !tbaa !8
  %102 = load ptr, ptr %10, align 8, !tbaa !10
  %103 = call i32 @H5O__msg_write_real(ptr noundef %97, ptr noundef %98, ptr noundef %99, i32 noundef %100, i32 noundef %101, ptr noundef %102)
  %104 = icmp slt i32 %103, 0
  br i1 %104, label %105, label %124

105:                                              ; preds = %94
  br label %106

106:                                              ; preds = %105
  br label %107

107:                                              ; preds = %106
  br label %108

108:                                              ; preds = %107
  %109 = load i64, ptr @H5E_OHDR_g, align 8, !tbaa !17
  %110 = load i64, ptr @H5E_WRITEERROR_g, align 8, !tbaa !17
  %111 = call i32 (ptr, ptr, i32, i64, i64, ptr, ...) @H5E_printf_stack(ptr noundef @.str, ptr noundef @__func__.H5O_msg_write, i32 noundef 247, i64 noundef %109, i64 noundef %110, ptr noundef @.str.8)
  br label %112

112:                                              ; preds = %108
  br label %113

113:                                              ; preds = %112
  store i8 1, ptr %14, align 1, !tbaa !13
  %114 = load i8, ptr %14, align 1, !tbaa !13, !range !15, !noundef !16
  %115 = trunc i8 %114 to i1
  %116 = zext i1 %115 to i8
  store i8 %116, ptr %14, align 1, !tbaa !13
  br label %117

117:                                              ; preds = %113
  br label %118

118:                                              ; preds = %117
  br label %119

119:                                              ; preds = %118
  store i32 -1, ptr %13, align 4, !tbaa !8
  br label %125

120:                                              ; No predecessors!
  br label %121

121:                                              ; preds = %120
  br label %122

122:                                              ; preds = %121
  br label %123

123:                                              ; preds = %122
  br label %124

124:                                              ; preds = %123, %94
  br label %125

125:                                              ; preds = %124, %119, %89, %46
  %126 = load ptr, ptr %11, align 8, !tbaa !11
  %127 = icmp ne ptr %126, null
  br i1 %127, label %128, label %148

128:                                              ; preds = %125
  %129 = load ptr, ptr %11, align 8, !tbaa !11
  %130 = call i32 @H5O_unpin(ptr noundef %129)
  %131 = icmp slt i32 %130, 0
  br i1 %131, label %132, label %148

132:                                              ; preds = %128
  br label %133

133:                                              ; preds = %132
  br label %134

134:                                              ; preds = %133
  br label %135

135:                                              ; preds = %134
  %136 = load i64, ptr @H5E_OHDR_g, align 8, !tbaa !17
  %137 = load i64, ptr @H5E_CANTUNPIN_g, align 8, !tbaa !17
  %138 = call i32 (ptr, ptr, i32, i64, i64, ptr, ...) @H5E_printf_stack(ptr noundef @.str, ptr noundef @__func__.H5O_msg_write, i32 noundef 251, i64 noundef %136, i64 noundef %137, ptr noundef @.str.4)
  br label %139

139:                                              ; preds = %135
  br label %140

140:                                              ; preds = %139
  store i8 1, ptr %14, align 1, !tbaa !13
  %141 = load i8, ptr %14, align 1, !tbaa !13, !range !15, !noundef !16
  %142 = trunc i8 %141 to i1
  %143 = zext i1 %142 to i8
  store i8 %143, ptr %14, align 1, !tbaa !13
  br label %144

144:                                              ; preds = %140
  br label %145

145:                                              ; preds = %144
  store i32 -1, ptr %13, align 4, !tbaa !8
  br label %146

146:                                              ; preds = %145
  br label %147

147:                                              ; preds = %146
  br label %148

148:                                              ; preds = %147, %128, %125
  br label %149

149:                                              ; preds = %148, %59
  %150 = load i32, ptr %13, align 4, !tbaa !8
  call void @llvm.lifetime.end.p0(i64 1, ptr %14) #5
  call void @llvm.lifetime.end.p0(i64 4, ptr %13) #5
  call void @llvm.lifetime.end.p0(i64 8, ptr %12) #5
  call void @llvm.lifetime.end.p0(i64 8, ptr %11) #5
  ret i32 %150
}