; Function Attrs: nounwind uwtable
define range(i32 -1, 1) i32 @H5O_msg_write(ptr noundef %0, i32 noundef %1, i32 noundef %2, i32 noundef %3, ptr noundef %4) local_unnamed_addr #0 {
  %6 = load i8, ptr @H5O_init_g, align 1, !tbaa !3, !range !7, !noundef !8
  %7 = trunc nuw i8 %6 to i1
  %8 = load i8, ptr @H5_libterm_g, align 1, !range !7
  %9 = trunc nuw i8 %8 to i1
  %10 = select i1 %7, i1 true, i1 %9
  br i1 %10, label %18, label %11, !prof !9

11:                                               ; preds = %5
  store i8 1, ptr @H5O_init_g, align 1, !tbaa !3
  %12 = tail call i32 @H5O__init_package() #7
  %13 = icmp slt i32 %12, 0
  br i1 %13, label %14, label %._crit_edge

._crit_edge:                                      ; preds = %11
  %.pre = load i8, ptr @H5O_init_g, align 1, !tbaa !3, !range !7
  %.pre20 = load i8, ptr @H5_libterm_g, align 1, !range !7
  %.pre21 = trunc nuw i8 %.pre to i1
  %.pre22 = trunc nuw i8 %.pre20 to i1
  br label %18

14:                                               ; preds = %11
  store i8 0, ptr @H5O_init_g, align 1, !tbaa !3
  %15 = load i64, ptr @H5E_FUNC_g, align 8, !tbaa !10
  %16 = load i64, ptr @H5E_CANTINIT_g, align 8, !tbaa !10
  %17 = tail call i32 (ptr, ptr, i32, i64, i64, ptr, ...) @H5E_printf_stack(ptr noundef nonnull @.str, ptr noundef nonnull @__func__.H5O_msg_write, i32 noundef 228, i64 noundef %15, i64 noundef %16, ptr noundef nonnull @.str.1) #7
  br label %.thread

18:                                               ; preds = %._crit_edge, %5
  %.pre-phi23 = phi i1 [ %.pre22, %._crit_edge ], [ %9, %5 ]
  %.pre-phi = phi i1 [ %.pre21, %._crit_edge ], [ %7, %5 ]
  %19 = xor i1 %.pre-phi23, true
  %20 = select i1 %.pre-phi, i1 true, i1 %19
  br i1 %20, label %21, label %.thread, !prof !9

21:                                               ; preds = %18
  %22 = zext i32 %1 to i64
  %23 = getelementptr inbounds nuw [26 x ptr], ptr @H5O_msg_class_g, i64 0, i64 %22
  %24 = load ptr, ptr %23, align 8, !tbaa !16
  %25 = tail call ptr @H5O_pin(ptr noundef %0) #7
  %26 = icmp eq ptr %25, null
  br i1 %26, label %27, label %31

27:                                               ; preds = %21
  %28 = load i64, ptr @H5E_OHDR_g, align 8, !tbaa !10
  %29 = load i64, ptr @H5E_CANTPIN_g, align 8, !tbaa !10
  %30 = tail call i32 (ptr, ptr, i32, i64, i64, ptr, ...) @H5E_printf_stack(ptr noundef nonnull @.str, ptr noundef nonnull @__func__.H5O_msg_write, i32 noundef 243, i64 noundef %28, i64 noundef %29, ptr noundef nonnull @.str.2) #7
  br label %.thread

31:                                               ; preds = %21
  %32 = load ptr, ptr %0, align 8, !tbaa !12
  %33 = tail call i32 @H5O__msg_write_real(ptr noundef %32, ptr noundef nonnull %25, ptr noundef %24, i32 noundef %2, i32 noundef %3, ptr noundef %4)
  %34 = icmp slt i32 %33, 0
  br i1 %34, label %35, label %39

35:                                               ; preds = %31
  %36 = load i64, ptr @H5E_OHDR_g, align 8, !tbaa !10
  %37 = load i64, ptr @H5E_WRITEERROR_g, align 8, !tbaa !10
  %38 = tail call i32 (ptr, ptr, i32, i64, i64, ptr, ...) @H5E_printf_stack(ptr noundef nonnull @.str, ptr noundef nonnull @__func__.H5O_msg_write, i32 noundef 247, i64 noundef %36, i64 noundef %37, ptr noundef nonnull @.str.8) #7
  br label %39

39:                                               ; preds = %35, %31
  %.0 = phi i32 [ -1, %35 ], [ 0, %31 ]
  %40 = tail call i32 @H5O_unpin(ptr noundef nonnull %25) #7
  %41 = icmp slt i32 %40, 0
  br i1 %41, label %42, label %.thread

42:                                               ; preds = %39
  %43 = load i64, ptr @H5E_OHDR_g, align 8, !tbaa !10
  %44 = load i64, ptr @H5E_CANTUNPIN_g, align 8, !tbaa !10
  %45 = tail call i32 (ptr, ptr, i32, i64, i64, ptr, ...) @H5E_printf_stack(ptr noundef nonnull @.str, ptr noundef nonnull @__func__.H5O_msg_write, i32 noundef 251, i64 noundef %43, i64 noundef %44, ptr noundef nonnull @.str.4) #7
  br label %.thread

.thread:                                          ; preds = %27, %14, %39, %42, %18
  %.1 = phi i32 [ -1, %42 ], [ %.0, %39 ], [ 0, %18 ], [ -1, %14 ], [ -1, %27 ]
  ret i32 %.1
}